#include <math.h>
#include <stdio.h>
#include <stdlib.h>
#include <string.h>

int main()
{
	int i,j,c,A,B;
	char a[100],b[100];
	scanf("%s %s",a,b);
	A=strlen(a);
	B=strlen(b);
	if(A!=B)
	{
		printf("NO");
	}
	else
	{
		for(i=0;i<A;i++)
		{
			for(j=0;j<A;j++)
			{
				if(a[i]==b[j])
				{
					b[j]='0';
					break;
				}
			}
		}
		c=0;
		for(i=0;i<A;i++)
		{
			if(b[i]!='0')
			{
				c=1;
				break;
			}
			else
			{
				c=0;
			}
		}
		if(c==1)
		{
			printf("NO");
		}
		else
		{
			printf("YES");
		}
	}
	return 0;
}