; ModuleID = 'source-C-CXX/35/807.c'
source_filename = "source-C-CXX/35/807.c"
target datalayout = "e-m:e-p270:32:32-p271:32:32-p272:64:64-i64:64-f80:128-n8:16:32:64-S128"
target triple = "x86_64-pc-linux-gnu"

@.str = private unnamed_addr constant [6 x i8] c"%s %s\00", align 1
@.str.1 = private unnamed_addr constant [3 x i8] c"NO\00", align 1
@.str.2 = private unnamed_addr constant [4 x i8] c"YES\00", align 1

; Function Attrs: nofree nounwind sspstrong uwtable
define dso_local i32 @main() local_unnamed_addr #0 {
  %1 = alloca [100 x i8], align 16
  %2 = alloca [100 x i8], align 16
  %3 = getelementptr inbounds [100 x i8], [100 x i8]* %1, i64 0, i64 0
  call void @llvm.lifetime.start.p0i8(i64 100, i8* nonnull %3) #4
  %4 = getelementptr inbounds [100 x i8], [100 x i8]* %2, i64 0, i64 0
  call void @llvm.lifetime.start.p0i8(i64 100, i8* nonnull %4) #4
  %5 = call i32 (i8*, ...) @__isoc99_scanf(i8* getelementptr inbounds ([6 x i8], [6 x i8]* @.str, i64 0, i64 0), i8* nonnull %3, i8* nonnull %4)
  %6 = call i64 @strlen(i8* noundef nonnull %3) #5
  %7 = trunc i64 %6 to i32
  %8 = call i64 @strlen(i8* noundef nonnull %4) #5
  %9 = trunc i64 %8 to i32
  %10 = icmp eq i32 %7, %9
  br i1 %10, label %11, label %44

11:                                               ; preds = %0
  %12 = icmp sgt i32 %7, 0
  br i1 %12, label %13, label %44

13:                                               ; preds = %11
  %14 = and i64 %6, 4294967295
  br label %15

15:                                               ; preds = %13, %30
  %16 = phi i64 [ 0, %13 ], [ %31, %30 ]
  %17 = getelementptr inbounds [100 x i8], [100 x i8]* %1, i64 0, i64 %16
  %18 = load i8, i8* %17, align 1, !tbaa !5
  br label %19

19:                                               ; preds = %15, %24
  %20 = phi i64 [ 0, %15 ], [ %25, %24 ]
  %21 = getelementptr inbounds [100 x i8], [100 x i8]* %2, i64 0, i64 %20
  %22 = load i8, i8* %21, align 1, !tbaa !5
  %23 = icmp eq i8 %18, %22
  br i1 %23, label %27, label %24

24:                                               ; preds = %19
  %25 = add nuw nsw i64 %20, 1
  %26 = icmp eq i64 %25, %14
  br i1 %26, label %30, label %19, !llvm.loop !8

27:                                               ; preds = %19
  %28 = and i64 %20, 4294967295
  %29 = getelementptr inbounds [100 x i8], [100 x i8]* %2, i64 0, i64 %28
  store i8 48, i8* %29, align 1, !tbaa !5
  br label %30

30:                                               ; preds = %24, %27
  %31 = add nuw nsw i64 %16, 1
  %32 = icmp eq i64 %31, %14
  br i1 %32, label %33, label %15, !llvm.loop !10

33:                                               ; preds = %30
  br i1 %12, label %34, label %44

34:                                               ; preds = %33
  %35 = and i64 %6, 4294967295
  br label %38

36:                                               ; preds = %38
  %37 = icmp eq i64 %43, %35
  br i1 %37, label %44, label %38, !llvm.loop !11

38:                                               ; preds = %34, %36
  %39 = phi i64 [ 0, %34 ], [ %43, %36 ]
  %40 = getelementptr inbounds [100 x i8], [100 x i8]* %2, i64 0, i64 %39
  %41 = load i8, i8* %40, align 1, !tbaa !5
  %42 = icmp eq i8 %41, 48
  %43 = add nuw nsw i64 %39, 1
  br i1 %42, label %36, label %44

44:                                               ; preds = %36, %38, %33, %11, %0
  %45 = phi i8* [ getelementptr inbounds ([3 x i8], [3 x i8]* @.str.1, i64 0, i64 0), %0 ], [ getelementptr inbounds ([4 x i8], [4 x i8]* @.str.2, i64 0, i64 0), %11 ], [ getelementptr inbounds ([4 x i8], [4 x i8]* @.str.2, i64 0, i64 0), %33 ], [ getelementptr inbounds ([3 x i8], [3 x i8]* @.str.1, i64 0, i64 0), %38 ], [ getelementptr inbounds ([4 x i8], [4 x i8]* @.str.2, i64 0, i64 0), %36 ]
  %46 = call i32 (i8*, ...) @printf(i8* nonnull dereferenceable(1) %45)
  call void @llvm.lifetime.end.p0i8(i64 100, i8* nonnull %4) #4
  call void @llvm.lifetime.end.p0i8(i64 100, i8* nonnull %3) #4
  ret i32 0
}

; Function Attrs: argmemonly mustprogress nofree nosync nounwind willreturn
declare void @llvm.lifetime.start.p0i8(i64 immarg, i8* nocapture) #1

; Function Attrs: nofree nounwind
declare noundef i32 @__isoc99_scanf(i8* nocapture noundef readonly, ...) local_unnamed_addr #2

; Function Attrs: argmemonly mustprogress nofree nounwind readonly willreturn
declare i64 @strlen(i8* nocapture) local_unnamed_addr #3

; Function Attrs: nofree nounwind
declare noundef i32 @printf(i8* nocapture noundef readonly, ...) local_unnamed_addr #2

; Function Attrs: argmemonly mustprogress nofree nosync nounwind willreturn
declare void @llvm.lifetime.end.p0i8(i64 immarg, i8* nocapture) #1


!llvm.module.flags = !{!0, !1, !2, !3}
!llvm.ident = !{!4}

!0 = !{i32 1, !"wchar_size", i32 4}
!1 = !{i32 7, !"PIC Level", i32 2}
!2 = !{i32 7, !"PIE Level", i32 2}
!3 = !{i32 7, !"uwtable", i32 1}
!4 = !{!"clang version 13.0.0"}
!5 = !{!6, !6, i64 0}
!6 = !{!"omnipotent char", !7, i64 0}
!7 = !{!"Simple C/C++ TBAA"}
!8 = distinct !{!8, !9}
!9 = !{!"llvm.loop.mustprogress"}
!10 = distinct !{!10, !9}
!11 = distinct !{!11, !9}
